target datalayout = "e-m:e-p270:32:32-p271:32:32-p272:64:64-i64:64-i128:128-f80:128-n8:16:32:64-S128"
target triple = "x86_64-pc-linux-gnu"

%struct.protocol_versions = type { ptr, i32 }

; Function Attrs: nounwind uwtable
define internal i32 @protocol_from_string(ptr noundef %0) #0 {
  %2 = alloca i32, align 4
  %3 = alloca ptr, align 8
  %4 = alloca i64, align 8
  %5 = alloca i64, align 8
  %6 = alloca i32, align 4
  store ptr %0, ptr %3, align 8, !tbaa !11
  call void @llvm.lifetime.start.p0(i64 8, ptr %4) #10
  call void @llvm.lifetime.start.p0(i64 8, ptr %5) #10
  store i64 7, ptr %5, align 8, !tbaa !19
  store i64 0, ptr %4, align 8, !tbaa !19
  br label %7

7:                                                ; preds = %25, %1
  %8 = load i64, ptr %4, align 8, !tbaa !19
  %9 = load i64, ptr %5, align 8, !tbaa !19
  %10 = icmp ult i64 %8, %9
  br i1 %10, label %11, label %28

11:                                               ; preds = %7
  %12 = load i64, ptr %4, align 8, !tbaa !19
  %13 = getelementptr inbounds nuw [7 x %struct.protocol_versions], ptr @protocol_from_string.versions, i64 0, i64 %12
  %14 = getelementptr inbounds nuw %struct.protocol_versions, ptr %13, i32 0, i32 0
  %15 = load ptr, ptr %14, align 16, !tbaa !68
  %16 = load ptr, ptr %3, align 8, !tbaa !11
  %17 = call i32 @strcmp(ptr noundef %15, ptr noundef %16) #11
  %18 = icmp eq i32 %17, 0
  br i1 %18, label %19, label %24

19:                                               ; preds = %11
  %20 = load i64, ptr %4, align 8, !tbaa !19
  %21 = getelementptr inbounds nuw [7 x %struct.protocol_versions], ptr @protocol_from_string.versions, i64 0, i64 %20
  %22 = getelementptr inbounds nuw %struct.protocol_versions, ptr %21, i32 0, i32 1
  %23 = load i32, ptr %22, align 8, !tbaa !70
  store i32 %23, ptr %2, align 4
  store i32 1, ptr %6, align 4
  br label %29

24:                                               ; preds = %11
  br label %25

25:                                               ; preds = %24
  %26 = load i64, ptr %4, align 8, !tbaa !19
  %27 = add i64 %26, 1
  store i64 %27, ptr %4, align 8, !tbaa !19
  br label %7, !llvm.loop !71

28:                                               ; preds = %7
  store i32 -1, ptr %2, align 4
  store i32 1, ptr %6, align 4
  br label %29

29:                                               ; preds = %28, %19
  call void @llvm.lifetime.end.p0(i64 8, ptr %5) #10
  call void @llvm.lifetime.end.p0(i64 8, ptr %4) #10
  %30 = load i32, ptr %2, align 4
  ret i32 %30
}