; Function Attrs: nofree nounwind memory(read, inaccessiblemem: none) uwtable
define internal fastcc i32 @protocol_from_string(ptr noundef nonnull readonly captures(none) %0) unnamed_addr #14 {
  br label %4

2:                                                ; preds = %4
  %3 = add nuw nsw i64 %.067, 1
  %exitcond.not = icmp eq i64 %3, 7
  br i1 %exitcond.not, label %.loopexit, label %4, !llvm.loop !37

4:                                                ; preds = %1, %2
  %.067 = phi i64 [ 0, %1 ], [ %3, %2 ]
  %5 = getelementptr inbounds nuw [7 x %struct.protocol_versions], ptr @protocol_from_string.versions, i64 0, i64 %.067
  %6 = load ptr, ptr %5, align 16, !tbaa !38
  %7 = tail call i32 @strcmp(ptr noundef nonnull dereferenceable(1) %6, ptr noundef nonnull dereferenceable(1) %0) #25
  %8 = icmp eq i32 %7, 0
  br i1 %8, label %9, label %2

9:                                                ; preds = %4
  %10 = getelementptr inbounds nuw i8, ptr %5, i64 8
  %11 = load i32, ptr %10, align 8, !tbaa !40
  br label %.loopexit

.loopexit:                                        ; preds = %2, %9
  %.0 = phi i32 [ %11, %9 ], [ -1, %2 ]
  ret i32 %.0
}